MPLINK 5.00, LINKER
Linker Map File - Created Wed Apr 16 12:05:56 2014

                                 Section Info
                  Section       Type    Address   Location Size(Bytes)
                ---------  ---------  ---------  ---------  ---------
                   .org_0       code   0x000000    program   0x000000
                   .org_1       code   0x000000    program   0x000004
                   .org_2       code   0x000008    program   0x000004
                   .org_3       code   0x000018    program   0x000fd0
                    dbgP0       code   0x007dc0    program   0x000240
    .config_300001_MAIN.O    romdata   0x300001    program   0x000001
    .config_300002_MAIN.O    romdata   0x300002    program   0x000001
    .config_300003_MAIN.O    romdata   0x300003    program   0x000001
    .config_300005_MAIN.O    romdata   0x300005    program   0x000001
    .config_300006_MAIN.O    romdata   0x300006    program   0x000001
    .config_300008_MAIN.O    romdata   0x300008    program   0x000001
    .config_300009_MAIN.O    romdata   0x300009    program   0x000001
    .config_30000A_MAIN.O    romdata   0x30000a    program   0x000001
    .config_30000B_MAIN.O    romdata   0x30000b    program   0x000001
    .config_30000C_MAIN.O    romdata   0x30000c    program   0x000001
    .config_30000D_MAIN.O    romdata   0x30000d    program   0x000001
                    dbgD0      udata   0x0005f4       data   0x00000c



                              Program Memory Usage 
                               Start         End      
                           ---------   ---------      
                            0x000000    0x000003      
                            0x000008    0x00000b      
                            0x000018    0x000fe7      
                            0x007dc0    0x007fff      
                            0x300001    0x300003      
                            0x300005    0x300006      
                            0x300008    0x30000d      
            4643 out of 33048 program addresses used, program memory utilization is 14%



                              Symbols - Sorted by Name
                     Name    Address   Location    Storage File                     
                ---------  ---------  ---------  --------- ---------                
                  Bin2BCD   0x000a34    program     static E:\CP316\ROBOPIC.X\ROBOPIC.X\BCD.inc
                  CCPdone   0x000f96    program     static E:\CP316\ROBOPIC.X\ROBOPIC.X\main.asm
                D1616AGEB   0x000574    program     static C:\MATH18\FXD1616U.INC   
               D1616B0GT0   0x00055c    program     static C:\MATH18\FXD1616U.INC   
                 D1616QOK   0x0005f4    program     static C:\MATH18\FXD1616U.INC   
               D1616QZERO   0x000438    program     static C:\MATH18\UTILS.INC      
              D1616UNRMOK   0x0005cc    program     static C:\MATH18\FXD1616U.INC   
                D1616UQOK   0x0005e0    program     static C:\MATH18\FXD1616U.INC   
                D2416AGTB   0x000634    program     static C:\MATH18\FXD2416U.INC   
                D2416BGT1   0x000618    program     static C:\MATH18\FXD2416U.INC   
              D2416FIXREM   0x000732    program     static C:\MATH18\FXD2416U.INC   
                 D2416QOK   0x00071c    program     static C:\MATH18\FXD2416U.INC   
               D2416REMOK   0x000758    program     static C:\MATH18\FXD2416U.INC   
               D2416ULOOP   0x0006a8    program     static C:\MATH18\FXD2416U.INC   
              D2416UNRMOK   0x000696    program     static C:\MATH18\FXD2416U.INC   
                D2416UQOK   0x0006f2    program     static C:\MATH18\FXD2416U.INC   
              D2416UQTEST   0x0006c8    program     static C:\MATH18\FXD2416U.INC   
               D2424QZERO   0x000432    program     static C:\MATH18\UTILS.INC      
                D3216AGTB   0x0007a2    program     static C:\MATH18\FXD3216U.inc   
                D3216BGT1   0x00077e    program     static C:\MATH18\FXD3216U.inc   
              D3216FIXREM   0x0008b6    program     static C:\MATH18\FXD3216U.inc   
                 D3216QOK   0x000898    program     static C:\MATH18\FXD3216U.inc   
               D3216REMOK   0x0008dc    program     static C:\MATH18\FXD3216U.inc   
               D3216ULOOP   0x000826    program     static C:\MATH18\FXD3216U.inc   
              D3216UNRMOK   0x000814    program     static C:\MATH18\FXD3216U.inc   
                D3216UQOK   0x00086e    program     static C:\MATH18\FXD3216U.inc   
              D3216UQTEST   0x000844    program     static C:\MATH18\FXD3216U.inc   
               D3232QZERO   0x00042c    program     static C:\MATH18\UTILS.INC      
                 DGETNRMD   0x00040a    program     static C:\MATH18\UTILS.INC      
                DGETNRMDH   0x000420    program     static C:\MATH18\UTILS.INC      
                DGETNRMDL   0x000410    program     static C:\MATH18\UTILS.INC      
                DREMZERO8   0x000446    program     static C:\MATH18\UTILS.INC      
                 FXD1608U   0x00044a    program     static C:\MATH18\FXD1608U.INC   
                FXD1608U1   0x000452    program     static C:\MATH18\FXD1608U.INC   
                FXD1608U2   0x000464    program     static C:\MATH18\FXD1608U.INC   
                 FXD1616U   0x000548    program     static C:\MATH18\FXD1616U.INC   
                 FXD2408U   0x000516    program     static C:\MATH18\FXD2408U.INC   
                 FXD2416U   0x0005fe    program     static C:\MATH18\FXD2416U.INC   
                 FXD3208U   0x0004cc    program     static C:\MATH18\FXD3208U.INC   
                 FXD3216U   0x000764    program     static C:\MATH18\FXD3216U.inc   
                IBXTBL256   0x000208    program     static C:\MATH18\TBL256.INC     
                 IR_check   0x000cee    program     static E:\CP316\ROBOPIC.X\ROBOPIC.X\IR.inc
           IR_displayFreq   0x000d40    program     static E:\CP316\ROBOPIC.X\ROBOPIC.X\IR.inc
                  IR_done   0x000d38    program     static E:\CP316\ROBOPIC.X\ROBOPIC.X\IR.inc
                 ISR_CCP1   0x000f7a    program     static E:\CP316\ROBOPIC.X\ROBOPIC.X\main.asm
                 ISR_high   0x000ed8    program     static E:\CP316\ROBOPIC.X\ROBOPIC.X\main.asm
            ISR_high_done   0x000f58    program     static E:\CP316\ROBOPIC.X\ROBOPIC.X\main.asm
            ISR_high_pri0   0x000ee6    program     static E:\CP316\ROBOPIC.X\ROBOPIC.X\main.asm
            ISR_high_pri1   0x000f10    program     static E:\CP316\ROBOPIC.X\ROBOPIC.X\main.asm
                  ISR_low   0x000f62    program     static E:\CP316\ROBOPIC.X\ROBOPIC.X\main.asm
             ISR_low_done   0x000fca    program     static E:\CP316\ROBOPIC.X\ROBOPIC.X\main.asm
            ISR_low_doneU   0x000fc6    program     static E:\CP316\ROBOPIC.X\ROBOPIC.X\main.asm
               ISR_ultraA   0x000f9a    program     static E:\CP316\ROBOPIC.X\ROBOPIC.X\main.asm
               ISR_ultraB   0x000faa    program     static E:\CP316\ROBOPIC.X\ROBOPIC.X\main.asm
              ISR_usartRX   0x000fba    program     static E:\CP316\ROBOPIC.X\ROBOPIC.X\main.asm
                LCD_clear   0x0009f8    program     static E:\CP316\ROBOPIC.X\ROBOPIC.X\LCD.inc
            LCD_printChar   0x000996    program     static E:\CP316\ROBOPIC.X\ROBOPIC.X\LCD.inc
             LCD_printHex   0x00097c    program     static E:\CP316\ROBOPIC.X\ROBOPIC.X\LCD.inc
          LCD_printString   0x000986    program     static E:\CP316\ROBOPIC.X\ROBOPIC.X\LCD.inc
           LCD_returnHome   0x0009dc    program     static E:\CP316\ROBOPIC.X\ROBOPIC.X\LCD.inc
                 LCD_send   0x000a14    program     static E:\CP316\ROBOPIC.X\ROBOPIC.X\LCD.inc
                LCD_send2   0x000a1e    program     static E:\CP316\ROBOPIC.X\ROBOPIC.X\LCD.inc
              LCD_setAddr   0x0009a8    program     static E:\CP316\ROBOPIC.X\ROBOPIC.X\LCD.inc
             LCD_shiftLCD   0x0009ba    program     static E:\CP316\ROBOPIC.X\ROBOPIC.X\LCD.inc
           LCD_shiftRight   0x0009c8    program     static E:\CP316\ROBOPIC.X\ROBOPIC.X\LCD.inc
            LCD_shiftSend   0x0009ca    program     static E:\CP316\ROBOPIC.X\ROBOPIC.X\LCD.inc
                  LCDinit   0x0008ec    program     static E:\CP316\ROBOPIC.X\ROBOPIC.X\LCD.inc
              RPG_calcCCW   0x000b36    program     static E:\CP316\ROBOPIC.X\ROBOPIC.X\RPG.inc
               RPG_ccwDir   0x000b2a    program     static E:\CP316\ROBOPIC.X\ROBOPIC.X\RPG.inc
              RPG_changed   0x000b22    program     static E:\CP316\ROBOPIC.X\ROBOPIC.X\RPG.inc
                RPG_check   0x000b16    program     static E:\CP316\ROBOPIC.X\ROBOPIC.X\RPG.inc
                RPG_cwDir   0x000b30    program     static E:\CP316\ROBOPIC.X\ROBOPIC.X\RPG.inc
                  RPG_dec   0x000b4a    program     static E:\CP316\ROBOPIC.X\ROBOPIC.X\RPG.inc
              RPG_decDone   0x000b54    program     static E:\CP316\ROBOPIC.X\ROBOPIC.X\RPG.inc
            RPG_doneCheck   0x000b34    program     static E:\CP316\ROBOPIC.X\ROBOPIC.X\RPG.inc
             RPG_doneNext   0x000b44    program     static E:\CP316\ROBOPIC.X\ROBOPIC.X\RPG.inc
                  RPG_get   0x000b04    program     static E:\CP316\ROBOPIC.X\ROBOPIC.X\RPG.inc
                  RPG_inc   0x000b56    program     static E:\CP316\ROBOPIC.X\ROBOPIC.X\RPG.inc
           RPG_resetCount   0x000b5c    program     static E:\CP316\ROBOPIC.X\ROBOPIC.X\RPG.inc
                 RPG_setz   0x000b42    program     static E:\CP316\ROBOPIC.X\ROBOPIC.X\RPG.inc
              beaconEntry   0x000192    program     static E:\CP316\ROBOPIC.X\ROBOPIC.X\main.asm
               beaconLoop   0x000086    program     static E:\CP316\ROBOPIC.X\ROBOPIC.X\main.asm
              beaconSetup   0x000158    program     static E:\CP316\ROBOPIC.X\ROBOPIC.X\main.asm
                   checkB   0x0000e2    program     static E:\CP316\ROBOPIC.X\ROBOPIC.X\main.asm
               checkBDist   0x000b88    program     static E:\CP316\ROBOPIC.X\ROBOPIC.X\Ultrasonic.inc
             checkBeacons   0x000094    program     static E:\CP316\ROBOPIC.X\ROBOPIC.X\main.asm
                 checkBtn   0x00009c    program     static E:\CP316\ROBOPIC.X\ROBOPIC.X\main.asm
                checkDist   0x000b7e    program     static E:\CP316\ROBOPIC.X\ROBOPIC.X\Ultrasonic.inc
               checkDistA   0x000b90    program     static E:\CP316\ROBOPIC.X\ROBOPIC.X\Ultrasonic.inc
               checkDistB   0x000bb2    program     static E:\CP316\ROBOPIC.X\ROBOPIC.X\Ultrasonic.inc
              checkMomBtn   0x0001e2    program     static E:\CP316\ROBOPIC.X\ROBOPIC.X\main.asm
               checkPulse   0x000b74    program     static E:\CP316\ROBOPIC.X\ROBOPIC.X\Ultrasonic.inc
             clearBeacons   0x0001d0    program     static E:\CP316\ROBOPIC.X\ROBOPIC.X\main.asm
                     cont   0x000bb0    program     static E:\CP316\ROBOPIC.X\ROBOPIC.X\Ultrasonic.inc
                  delayms   0x000aa2    program     static E:\CP316\ROBOPIC.X\ROBOPIC.X\Delay.inc
             delayms_loop   0x000aa6    program     static E:\CP316\ROBOPIC.X\ROBOPIC.X\Delay.inc
                  delayus   0x000a9c    program     static E:\CP316\ROBOPIC.X\ROBOPIC.X\Delay.inc
            doneDistCheck   0x000b8c    program     static E:\CP316\ROBOPIC.X\ROBOPIC.X\Ultrasonic.inc
            endBeaconLoop   0x0000a4    program     static E:\CP316\ROBOPIC.X\ROBOPIC.X\main.asm
                 inLimits   0x0001a6    program     static E:\CP316\ROBOPIC.X\ROBOPIC.X\main.asm
                     main   0x00001c    program     static E:\CP316\ROBOPIC.X\ROBOPIC.X\main.asm
                 mainLoop   0x0000a8    program     static E:\CP316\ROBOPIC.X\ROBOPIC.X\main.asm
                mainSetup   0x0000fa    program     static E:\CP316\ROBOPIC.X\ROBOPIC.X\main.asm
             mess_Beacons   0x000fd6    program     static E:\CP316\ROBOPIC.X\ROBOPIC.X\main.asm
              mess_Search   0x000fe0    program     static E:\CP316\ROBOPIC.X\ROBOPIC.X\main.asm
            nav_avoidWall   0x000c36    program     static E:\CP316\ROBOPIC.X\ROBOPIC.X\Navigation.inc
       nav_avoidWall_done   0x000c80    program     static E:\CP316\ROBOPIC.X\ROBOPIC.X\Navigation.inc
                 nav_done   0x000bea    program     static E:\CP316\ROBOPIC.X\ROBOPIC.X\Navigation.inc
             nav_findWall   0x000c82    program     static E:\CP316\ROBOPIC.X\ROBOPIC.X\Navigation.inc
        nav_findWall_done   0x000ccc    program     static E:\CP316\ROBOPIC.X\ROBOPIC.X\Navigation.inc
                nav_found   0x000bec    program     static E:\CP316\ROBOPIC.X\ROBOPIC.X\Navigation.inc
                 nav_look   0x000c18    program     static E:\CP316\ROBOPIC.X\ROBOPIC.X\Navigation.inc
               nav_newDir   0x000cce    program     static E:\CP316\ROBOPIC.X\ROBOPIC.X\Navigation.inc
          nav_notStraight   0x000bda    program     static E:\CP316\ROBOPIC.X\ROBOPIC.X\Navigation.inc
             nav_straight   0x000bf8    program     static E:\CP316\ROBOPIC.X\ROBOPIC.X\Navigation.inc
                 navigate   0x000bc6    program     static E:\CP316\ROBOPIC.X\ROBOPIC.X\Navigation.inc
              noDistCheck   0x0000f0    program     static E:\CP316\ROBOPIC.X\ROBOPIC.X\main.asm
                noIRCheck   0x0000f8    program     static E:\CP316\ROBOPIC.X\ROBOPIC.X\main.asm
                 noSearch   0x0000c6    program     static E:\CP316\ROBOPIC.X\ROBOPIC.X\main.asm
                noTrigger   0x000b7c    program     static E:\CP316\ROBOPIC.X\ROBOPIC.X\Ultrasonic.inc
                  noprint   0x00008e    program     static E:\CP316\ROBOPIC.X\ROBOPIC.X\main.asm
                  notHigh   0x00019c    program     static E:\CP316\ROBOPIC.X\ROBOPIC.X\main.asm
               notPressed   0x000206    program     static E:\CP316\ROBOPIC.X\ROBOPIC.X\main.asm
                  nullStr   0x000994    program     static E:\CP316\ROBOPIC.X\ROBOPIC.X\LCD.inc
                  pressed   0x0001f0    program     static E:\CP316\ROBOPIC.X\ROBOPIC.X\main.asm
             printBeacons   0x0001b8    program     static E:\CP316\ROBOPIC.X\ROBOPIC.X\main.asm
         printBeaconsLoop   0x0001c0    program     static E:\CP316\ROBOPIC.X\ROBOPIC.X\main.asm
                  progEnd   0x000fd2    program     static E:\CP316\ROBOPIC.X\ROBOPIC.X\main.asm
                rotateAll   0x000a3e    program     static E:\CP316\ROBOPIC.X\ROBOPIC.X\BCD.inc
               servoADone   0x000ab6    program     static E:\CP316\ROBOPIC.X\ROBOPIC.X\Servo.inc
               servoAMain   0x000ab0    program     static E:\CP316\ROBOPIC.X\ROBOPIC.X\Servo.inc
               servoBDone   0x000aca    program     static E:\CP316\ROBOPIC.X\ROBOPIC.X\Servo.inc
               servoBMain   0x000ab8    program     static E:\CP316\ROBOPIC.X\ROBOPIC.X\Servo.inc
               servo_dirA   0x000afc    program     static E:\CP316\ROBOPIC.X\ROBOPIC.X\Servo.inc
               servo_dirB   0x000b00    program     static E:\CP316\ROBOPIC.X\ROBOPIC.X\Servo.inc
               servo_setA   0x000ad4    program     static E:\CP316\ROBOPIC.X\ROBOPIC.X\Servo.inc
          servo_setASpeed   0x000ae4    program     static E:\CP316\ROBOPIC.X\ROBOPIC.X\Servo.inc
            servo_setAfwd   0x000ae0    program     static E:\CP316\ROBOPIC.X\ROBOPIC.X\Servo.inc
               servo_setB   0x000ae8    program     static E:\CP316\ROBOPIC.X\ROBOPIC.X\Servo.inc
          servo_setBSpeed   0x000af8    program     static E:\CP316\ROBOPIC.X\ROBOPIC.X\Servo.inc
            servo_setBfwd   0x000af4    program     static E:\CP316\ROBOPIC.X\ROBOPIC.X\Servo.inc
              servo_stopA   0x000acc    program     static E:\CP316\ROBOPIC.X\ROBOPIC.X\Servo.inc
              servo_stopB   0x000ad0    program     static E:\CP316\ROBOPIC.X\ROBOPIC.X\Servo.inc
                 setFound   0x000f90    program     static E:\CP316\ROBOPIC.X\ROBOPIC.X\main.asm
               setTrigger   0x000b62    program     static E:\CP316\ROBOPIC.X\ROBOPIC.X\Ultrasonic.inc
             straightLeft   0x000cae    program     static E:\CP316\ROBOPIC.X\ROBOPIC.X\Navigation.inc
            straightRight   0x000c62    program     static E:\CP316\ROBOPIC.X\ROBOPIC.X\Navigation.inc
              ultraB_good   0x000bc2    program     static E:\CP316\ROBOPIC.X\ROBOPIC.X\Ultrasonic.inc
          ultraB_tooClose   0x000bbe    program     static E:\CP316\ROBOPIC.X\ROBOPIC.X\Ultrasonic.inc
               ultraBcont   0x000bc4    program     static E:\CP316\ROBOPIC.X\ROBOPIC.X\Ultrasonic.inc
                unpackBCD   0x000a5a    program     static E:\CP316\ROBOPIC.X\ROBOPIC.X\BCD.inc
              usart_OTHER   0x000dc0    program     static E:\CP316\ROBOPIC.X\ROBOPIC.X\USART.inc
            usart_checkRX   0x000d82    program     static E:\CP316\ROBOPIC.X\ROBOPIC.X\USART.inc
          usart_doneCheck   0x000dac    program     static E:\CP316\ROBOPIC.X\ROBOPIC.X\USART.inc
               usart_not1   0x000d8a    program     static E:\CP316\ROBOPIC.X\ROBOPIC.X\USART.inc
               usart_not2   0x000d92    program     static E:\CP316\ROBOPIC.X\ROBOPIC.X\USART.inc
               usart_not3   0x000d9a    program     static E:\CP316\ROBOPIC.X\ROBOPIC.X\USART.inc
               usart_not4   0x000da2    program     static E:\CP316\ROBOPIC.X\ROBOPIC.X\USART.inc
               usart_not5   0x000daa    program     static E:\CP316\ROBOPIC.X\ROBOPIC.X\USART.inc
               usart_notA   0x000e38    program     static E:\CP316\ROBOPIC.X\ROBOPIC.X\USART.inc
               usart_notG   0x000dca    program     static E:\CP316\ROBOPIC.X\ROBOPIC.X\USART.inc
               usart_notM   0x000df2    program     static E:\CP316\ROBOPIC.X\ROBOPIC.X\USART.inc
               usart_notP   0x000dd2    program     static E:\CP316\ROBOPIC.X\ROBOPIC.X\USART.inc
               usart_notW   0x000e16    program     static E:\CP316\ROBOPIC.X\ROBOPIC.X\USART.inc
               usart_notZ   0x000e5c    program     static E:\CP316\ROBOPIC.X\ROBOPIC.X\USART.inc
           usart_sendFreq   0x000e80    program     static E:\CP316\ROBOPIC.X\ROBOPIC.X\USART.inc
            usart_storeRX   0x000dae    program     static E:\CP316\ROBOPIC.X\ROBOPIC.X\USART.inc
                wallClose   0x000bac    program     static E:\CP316\ROBOPIC.X\ROBOPIC.X\Ultrasonic.inc
                  wallFar   0x000ba6    program     static E:\CP316\ROBOPIC.X\ROBOPIC.X\Ultrasonic.inc



                              Symbols - Sorted by Address
                     Name    Address   Location    Storage File                     
                ---------  ---------  ---------  --------- ---------                
                     main   0x00001c    program     static E:\CP316\ROBOPIC.X\ROBOPIC.X\main.asm
               beaconLoop   0x000086    program     static E:\CP316\ROBOPIC.X\ROBOPIC.X\main.asm
                  noprint   0x00008e    program     static E:\CP316\ROBOPIC.X\ROBOPIC.X\main.asm
             checkBeacons   0x000094    program     static E:\CP316\ROBOPIC.X\ROBOPIC.X\main.asm
                 checkBtn   0x00009c    program     static E:\CP316\ROBOPIC.X\ROBOPIC.X\main.asm
            endBeaconLoop   0x0000a4    program     static E:\CP316\ROBOPIC.X\ROBOPIC.X\main.asm
                 mainLoop   0x0000a8    program     static E:\CP316\ROBOPIC.X\ROBOPIC.X\main.asm
                 noSearch   0x0000c6    program     static E:\CP316\ROBOPIC.X\ROBOPIC.X\main.asm
                   checkB   0x0000e2    program     static E:\CP316\ROBOPIC.X\ROBOPIC.X\main.asm
              noDistCheck   0x0000f0    program     static E:\CP316\ROBOPIC.X\ROBOPIC.X\main.asm
                noIRCheck   0x0000f8    program     static E:\CP316\ROBOPIC.X\ROBOPIC.X\main.asm
                mainSetup   0x0000fa    program     static E:\CP316\ROBOPIC.X\ROBOPIC.X\main.asm
              beaconSetup   0x000158    program     static E:\CP316\ROBOPIC.X\ROBOPIC.X\main.asm
              beaconEntry   0x000192    program     static E:\CP316\ROBOPIC.X\ROBOPIC.X\main.asm
                  notHigh   0x00019c    program     static E:\CP316\ROBOPIC.X\ROBOPIC.X\main.asm
                 inLimits   0x0001a6    program     static E:\CP316\ROBOPIC.X\ROBOPIC.X\main.asm
             printBeacons   0x0001b8    program     static E:\CP316\ROBOPIC.X\ROBOPIC.X\main.asm
         printBeaconsLoop   0x0001c0    program     static E:\CP316\ROBOPIC.X\ROBOPIC.X\main.asm
             clearBeacons   0x0001d0    program     static E:\CP316\ROBOPIC.X\ROBOPIC.X\main.asm
              checkMomBtn   0x0001e2    program     static E:\CP316\ROBOPIC.X\ROBOPIC.X\main.asm
                  pressed   0x0001f0    program     static E:\CP316\ROBOPIC.X\ROBOPIC.X\main.asm
               notPressed   0x000206    program     static E:\CP316\ROBOPIC.X\ROBOPIC.X\main.asm
                IBXTBL256   0x000208    program     static C:\MATH18\TBL256.INC     
                 DGETNRMD   0x00040a    program     static C:\MATH18\UTILS.INC      
                DGETNRMDL   0x000410    program     static C:\MATH18\UTILS.INC      
                DGETNRMDH   0x000420    program     static C:\MATH18\UTILS.INC      
               D3232QZERO   0x00042c    program     static C:\MATH18\UTILS.INC      
               D2424QZERO   0x000432    program     static C:\MATH18\UTILS.INC      
               D1616QZERO   0x000438    program     static C:\MATH18\UTILS.INC      
                DREMZERO8   0x000446    program     static C:\MATH18\UTILS.INC      
                 FXD1608U   0x00044a    program     static C:\MATH18\FXD1608U.INC   
                FXD1608U1   0x000452    program     static C:\MATH18\FXD1608U.INC   
                FXD1608U2   0x000464    program     static C:\MATH18\FXD1608U.INC   
                 FXD3208U   0x0004cc    program     static C:\MATH18\FXD3208U.INC   
                 FXD2408U   0x000516    program     static C:\MATH18\FXD2408U.INC   
                 FXD1616U   0x000548    program     static C:\MATH18\FXD1616U.INC   
               D1616B0GT0   0x00055c    program     static C:\MATH18\FXD1616U.INC   
                D1616AGEB   0x000574    program     static C:\MATH18\FXD1616U.INC   
              D1616UNRMOK   0x0005cc    program     static C:\MATH18\FXD1616U.INC   
                D1616UQOK   0x0005e0    program     static C:\MATH18\FXD1616U.INC   
                 D1616QOK   0x0005f4    program     static C:\MATH18\FXD1616U.INC   
                 FXD2416U   0x0005fe    program     static C:\MATH18\FXD2416U.INC   
                D2416BGT1   0x000618    program     static C:\MATH18\FXD2416U.INC   
                D2416AGTB   0x000634    program     static C:\MATH18\FXD2416U.INC   
              D2416UNRMOK   0x000696    program     static C:\MATH18\FXD2416U.INC   
               D2416ULOOP   0x0006a8    program     static C:\MATH18\FXD2416U.INC   
              D2416UQTEST   0x0006c8    program     static C:\MATH18\FXD2416U.INC   
                D2416UQOK   0x0006f2    program     static C:\MATH18\FXD2416U.INC   
                 D2416QOK   0x00071c    program     static C:\MATH18\FXD2416U.INC   
              D2416FIXREM   0x000732    program     static C:\MATH18\FXD2416U.INC   
               D2416REMOK   0x000758    program     static C:\MATH18\FXD2416U.INC   
                 FXD3216U   0x000764    program     static C:\MATH18\FXD3216U.inc   
                D3216BGT1   0x00077e    program     static C:\MATH18\FXD3216U.inc   
                D3216AGTB   0x0007a2    program     static C:\MATH18\FXD3216U.inc   
              D3216UNRMOK   0x000814    program     static C:\MATH18\FXD3216U.inc   
               D3216ULOOP   0x000826    program     static C:\MATH18\FXD3216U.inc   
              D3216UQTEST   0x000844    program     static C:\MATH18\FXD3216U.inc   
                D3216UQOK   0x00086e    program     static C:\MATH18\FXD3216U.inc   
                 D3216QOK   0x000898    program     static C:\MATH18\FXD3216U.inc   
              D3216FIXREM   0x0008b6    program     static C:\MATH18\FXD3216U.inc   
               D3216REMOK   0x0008dc    program     static C:\MATH18\FXD3216U.inc   
                  LCDinit   0x0008ec    program     static E:\CP316\ROBOPIC.X\ROBOPIC.X\LCD.inc
             LCD_printHex   0x00097c    program     static E:\CP316\ROBOPIC.X\ROBOPIC.X\LCD.inc
          LCD_printString   0x000986    program     static E:\CP316\ROBOPIC.X\ROBOPIC.X\LCD.inc
                  nullStr   0x000994    program     static E:\CP316\ROBOPIC.X\ROBOPIC.X\LCD.inc
            LCD_printChar   0x000996    program     static E:\CP316\ROBOPIC.X\ROBOPIC.X\LCD.inc
              LCD_setAddr   0x0009a8    program     static E:\CP316\ROBOPIC.X\ROBOPIC.X\LCD.inc
             LCD_shiftLCD   0x0009ba    program     static E:\CP316\ROBOPIC.X\ROBOPIC.X\LCD.inc
           LCD_shiftRight   0x0009c8    program     static E:\CP316\ROBOPIC.X\ROBOPIC.X\LCD.inc
            LCD_shiftSend   0x0009ca    program     static E:\CP316\ROBOPIC.X\ROBOPIC.X\LCD.inc
           LCD_returnHome   0x0009dc    program     static E:\CP316\ROBOPIC.X\ROBOPIC.X\LCD.inc
                LCD_clear   0x0009f8    program     static E:\CP316\ROBOPIC.X\ROBOPIC.X\LCD.inc
                 LCD_send   0x000a14    program     static E:\CP316\ROBOPIC.X\ROBOPIC.X\LCD.inc
                LCD_send2   0x000a1e    program     static E:\CP316\ROBOPIC.X\ROBOPIC.X\LCD.inc
                  Bin2BCD   0x000a34    program     static E:\CP316\ROBOPIC.X\ROBOPIC.X\BCD.inc
                rotateAll   0x000a3e    program     static E:\CP316\ROBOPIC.X\ROBOPIC.X\BCD.inc
                unpackBCD   0x000a5a    program     static E:\CP316\ROBOPIC.X\ROBOPIC.X\BCD.inc
                  delayus   0x000a9c    program     static E:\CP316\ROBOPIC.X\ROBOPIC.X\Delay.inc
                  delayms   0x000aa2    program     static E:\CP316\ROBOPIC.X\ROBOPIC.X\Delay.inc
             delayms_loop   0x000aa6    program     static E:\CP316\ROBOPIC.X\ROBOPIC.X\Delay.inc
               servoAMain   0x000ab0    program     static E:\CP316\ROBOPIC.X\ROBOPIC.X\Servo.inc
               servoADone   0x000ab6    program     static E:\CP316\ROBOPIC.X\ROBOPIC.X\Servo.inc
               servoBMain   0x000ab8    program     static E:\CP316\ROBOPIC.X\ROBOPIC.X\Servo.inc
               servoBDone   0x000aca    program     static E:\CP316\ROBOPIC.X\ROBOPIC.X\Servo.inc
              servo_stopA   0x000acc    program     static E:\CP316\ROBOPIC.X\ROBOPIC.X\Servo.inc
              servo_stopB   0x000ad0    program     static E:\CP316\ROBOPIC.X\ROBOPIC.X\Servo.inc
               servo_setA   0x000ad4    program     static E:\CP316\ROBOPIC.X\ROBOPIC.X\Servo.inc
            servo_setAfwd   0x000ae0    program     static E:\CP316\ROBOPIC.X\ROBOPIC.X\Servo.inc
          servo_setASpeed   0x000ae4    program     static E:\CP316\ROBOPIC.X\ROBOPIC.X\Servo.inc
               servo_setB   0x000ae8    program     static E:\CP316\ROBOPIC.X\ROBOPIC.X\Servo.inc
            servo_setBfwd   0x000af4    program     static E:\CP316\ROBOPIC.X\ROBOPIC.X\Servo.inc
          servo_setBSpeed   0x000af8    program     static E:\CP316\ROBOPIC.X\ROBOPIC.X\Servo.inc
               servo_dirA   0x000afc    program     static E:\CP316\ROBOPIC.X\ROBOPIC.X\Servo.inc
               servo_dirB   0x000b00    program     static E:\CP316\ROBOPIC.X\ROBOPIC.X\Servo.inc
                  RPG_get   0x000b04    program     static E:\CP316\ROBOPIC.X\ROBOPIC.X\RPG.inc
                RPG_check   0x000b16    program     static E:\CP316\ROBOPIC.X\ROBOPIC.X\RPG.inc
              RPG_changed   0x000b22    program     static E:\CP316\ROBOPIC.X\ROBOPIC.X\RPG.inc
               RPG_ccwDir   0x000b2a    program     static E:\CP316\ROBOPIC.X\ROBOPIC.X\RPG.inc
                RPG_cwDir   0x000b30    program     static E:\CP316\ROBOPIC.X\ROBOPIC.X\RPG.inc
            RPG_doneCheck   0x000b34    program     static E:\CP316\ROBOPIC.X\ROBOPIC.X\RPG.inc
              RPG_calcCCW   0x000b36    program     static E:\CP316\ROBOPIC.X\ROBOPIC.X\RPG.inc
                 RPG_setz   0x000b42    program     static E:\CP316\ROBOPIC.X\ROBOPIC.X\RPG.inc
             RPG_doneNext   0x000b44    program     static E:\CP316\ROBOPIC.X\ROBOPIC.X\RPG.inc
                  RPG_dec   0x000b4a    program     static E:\CP316\ROBOPIC.X\ROBOPIC.X\RPG.inc
              RPG_decDone   0x000b54    program     static E:\CP316\ROBOPIC.X\ROBOPIC.X\RPG.inc
                  RPG_inc   0x000b56    program     static E:\CP316\ROBOPIC.X\ROBOPIC.X\RPG.inc
           RPG_resetCount   0x000b5c    program     static E:\CP316\ROBOPIC.X\ROBOPIC.X\RPG.inc
               setTrigger   0x000b62    program     static E:\CP316\ROBOPIC.X\ROBOPIC.X\Ultrasonic.inc
               checkPulse   0x000b74    program     static E:\CP316\ROBOPIC.X\ROBOPIC.X\Ultrasonic.inc
                noTrigger   0x000b7c    program     static E:\CP316\ROBOPIC.X\ROBOPIC.X\Ultrasonic.inc
                checkDist   0x000b7e    program     static E:\CP316\ROBOPIC.X\ROBOPIC.X\Ultrasonic.inc
               checkBDist   0x000b88    program     static E:\CP316\ROBOPIC.X\ROBOPIC.X\Ultrasonic.inc
            doneDistCheck   0x000b8c    program     static E:\CP316\ROBOPIC.X\ROBOPIC.X\Ultrasonic.inc
               checkDistA   0x000b90    program     static E:\CP316\ROBOPIC.X\ROBOPIC.X\Ultrasonic.inc
                  wallFar   0x000ba6    program     static E:\CP316\ROBOPIC.X\ROBOPIC.X\Ultrasonic.inc
                wallClose   0x000bac    program     static E:\CP316\ROBOPIC.X\ROBOPIC.X\Ultrasonic.inc
                     cont   0x000bb0    program     static E:\CP316\ROBOPIC.X\ROBOPIC.X\Ultrasonic.inc
               checkDistB   0x000bb2    program     static E:\CP316\ROBOPIC.X\ROBOPIC.X\Ultrasonic.inc
          ultraB_tooClose   0x000bbe    program     static E:\CP316\ROBOPIC.X\ROBOPIC.X\Ultrasonic.inc
              ultraB_good   0x000bc2    program     static E:\CP316\ROBOPIC.X\ROBOPIC.X\Ultrasonic.inc
               ultraBcont   0x000bc4    program     static E:\CP316\ROBOPIC.X\ROBOPIC.X\Ultrasonic.inc
                 navigate   0x000bc6    program     static E:\CP316\ROBOPIC.X\ROBOPIC.X\Navigation.inc
          nav_notStraight   0x000bda    program     static E:\CP316\ROBOPIC.X\ROBOPIC.X\Navigation.inc
                 nav_done   0x000bea    program     static E:\CP316\ROBOPIC.X\ROBOPIC.X\Navigation.inc
                nav_found   0x000bec    program     static E:\CP316\ROBOPIC.X\ROBOPIC.X\Navigation.inc
             nav_straight   0x000bf8    program     static E:\CP316\ROBOPIC.X\ROBOPIC.X\Navigation.inc
                 nav_look   0x000c18    program     static E:\CP316\ROBOPIC.X\ROBOPIC.X\Navigation.inc
            nav_avoidWall   0x000c36    program     static E:\CP316\ROBOPIC.X\ROBOPIC.X\Navigation.inc
            straightRight   0x000c62    program     static E:\CP316\ROBOPIC.X\ROBOPIC.X\Navigation.inc
       nav_avoidWall_done   0x000c80    program     static E:\CP316\ROBOPIC.X\ROBOPIC.X\Navigation.inc
             nav_findWall   0x000c82    program     static E:\CP316\ROBOPIC.X\ROBOPIC.X\Navigation.inc
             straightLeft   0x000cae    program     static E:\CP316\ROBOPIC.X\ROBOPIC.X\Navigation.inc
        nav_findWall_done   0x000ccc    program     static E:\CP316\ROBOPIC.X\ROBOPIC.X\Navigation.inc
               nav_newDir   0x000cce    program     static E:\CP316\ROBOPIC.X\ROBOPIC.X\Navigation.inc
                 IR_check   0x000cee    program     static E:\CP316\ROBOPIC.X\ROBOPIC.X\IR.inc
                  IR_done   0x000d38    program     static E:\CP316\ROBOPIC.X\ROBOPIC.X\IR.inc
           IR_displayFreq   0x000d40    program     static E:\CP316\ROBOPIC.X\ROBOPIC.X\IR.inc
            usart_checkRX   0x000d82    program     static E:\CP316\ROBOPIC.X\ROBOPIC.X\USART.inc
               usart_not1   0x000d8a    program     static E:\CP316\ROBOPIC.X\ROBOPIC.X\USART.inc
               usart_not2   0x000d92    program     static E:\CP316\ROBOPIC.X\ROBOPIC.X\USART.inc
               usart_not3   0x000d9a    program     static E:\CP316\ROBOPIC.X\ROBOPIC.X\USART.inc
               usart_not4   0x000da2    program     static E:\CP316\ROBOPIC.X\ROBOPIC.X\USART.inc
               usart_not5   0x000daa    program     static E:\CP316\ROBOPIC.X\ROBOPIC.X\USART.inc
          usart_doneCheck   0x000dac    program     static E:\CP316\ROBOPIC.X\ROBOPIC.X\USART.inc
            usart_storeRX   0x000dae    program     static E:\CP316\ROBOPIC.X\ROBOPIC.X\USART.inc
              usart_OTHER   0x000dc0    program     static E:\CP316\ROBOPIC.X\ROBOPIC.X\USART.inc
               usart_notG   0x000dca    program     static E:\CP316\ROBOPIC.X\ROBOPIC.X\USART.inc
               usart_notP   0x000dd2    program     static E:\CP316\ROBOPIC.X\ROBOPIC.X\USART.inc
               usart_notM   0x000df2    program     static E:\CP316\ROBOPIC.X\ROBOPIC.X\USART.inc
               usart_notW   0x000e16    program     static E:\CP316\ROBOPIC.X\ROBOPIC.X\USART.inc
               usart_notA   0x000e38    program     static E:\CP316\ROBOPIC.X\ROBOPIC.X\USART.inc
               usart_notZ   0x000e5c    program     static E:\CP316\ROBOPIC.X\ROBOPIC.X\USART.inc
           usart_sendFreq   0x000e80    program     static E:\CP316\ROBOPIC.X\ROBOPIC.X\USART.inc
                 ISR_high   0x000ed8    program     static E:\CP316\ROBOPIC.X\ROBOPIC.X\main.asm
            ISR_high_pri0   0x000ee6    program     static E:\CP316\ROBOPIC.X\ROBOPIC.X\main.asm
            ISR_high_pri1   0x000f10    program     static E:\CP316\ROBOPIC.X\ROBOPIC.X\main.asm
            ISR_high_done   0x000f58    program     static E:\CP316\ROBOPIC.X\ROBOPIC.X\main.asm
                  ISR_low   0x000f62    program     static E:\CP316\ROBOPIC.X\ROBOPIC.X\main.asm
                 ISR_CCP1   0x000f7a    program     static E:\CP316\ROBOPIC.X\ROBOPIC.X\main.asm
                 setFound   0x000f90    program     static E:\CP316\ROBOPIC.X\ROBOPIC.X\main.asm
                  CCPdone   0x000f96    program     static E:\CP316\ROBOPIC.X\ROBOPIC.X\main.asm
               ISR_ultraA   0x000f9a    program     static E:\CP316\ROBOPIC.X\ROBOPIC.X\main.asm
               ISR_ultraB   0x000faa    program     static E:\CP316\ROBOPIC.X\ROBOPIC.X\main.asm
              ISR_usartRX   0x000fba    program     static E:\CP316\ROBOPIC.X\ROBOPIC.X\main.asm
            ISR_low_doneU   0x000fc6    program     static E:\CP316\ROBOPIC.X\ROBOPIC.X\main.asm
             ISR_low_done   0x000fca    program     static E:\CP316\ROBOPIC.X\ROBOPIC.X\main.asm
                  progEnd   0x000fd2    program     static E:\CP316\ROBOPIC.X\ROBOPIC.X\main.asm
             mess_Beacons   0x000fd6    program     static E:\CP316\ROBOPIC.X\ROBOPIC.X\main.asm
              mess_Search   0x000fe0    program     static E:\CP316\ROBOPIC.X\ROBOPIC.X\main.asm


